; ModuleID = '56/1934.c'
source_filename = "56/1934.c"
target datalayout = "e-m:e-p270:32:32-p271:32:32-p272:64:64-i64:64-f80:128-n8:16:32:64-S128"
target triple = "x86_64-pc-linux-gnu"

@.str = private unnamed_addr constant [3 x i8] c"%d\00", align 1
@.str.1 = private unnamed_addr constant [5 x i8] c"%d%d\00", align 1
@.str.2 = private unnamed_addr constant [7 x i8] c"%d%d%d\00", align 1
@.str.3 = private unnamed_addr constant [9 x i8] c"%d%d%d%d\00", align 1
@.str.4 = private unnamed_addr constant [11 x i8] c"%d%d%d%d%d\00", align 1

; Function Attrs: noinline nounwind uwtable
define dso_local i32 @main() #0 {
  %1 = alloca i32, align 4
  %2 = alloca i32, align 4
  %3 = alloca i32, align 4
  %4 = alloca i32, align 4
  %5 = alloca i32, align 4
  %6 = alloca i32, align 4
  %7 = alloca i32, align 4
  store i32 0, i32* %1, align 4
  %8 = call i32 (i8*, ...) @__isoc99_scanf(i8* getelementptr inbounds ([3 x i8], [3 x i8]* @.str, i64 0, i64 0), i32* %2)
  %9 = load i32, i32* %2, align 4
  %10 = icmp slt i32 %9, 10
  br i1 %10, label %11, label %14

11:                                               ; preds = %0
  %12 = load i32, i32* %2, align 4
  %13 = call i32 (i8*, ...) @printf(i8* getelementptr inbounds ([3 x i8], [3 x i8]* @.str, i64 0, i64 0), i32 %12)
  br label %82

14:                                               ; preds = %0
  %15 = load i32, i32* %2, align 4
  %16 = icmp slt i32 %15, 100
  br i1 %16, label %17, label %25

17:                                               ; preds = %14
  %18 = load i32, i32* %2, align 4
  %19 = sdiv i32 %18, 10
  store i32 %19, i32* %3, align 4
  %20 = load i32, i32* %2, align 4
  %21 = srem i32 %20, 10
  store i32 %21, i32* %4, align 4
  %22 = load i32, i32* %4, align 4
  %23 = load i32, i32* %3, align 4
  %24 = call i32 (i8*, ...) @printf(i8* getelementptr inbounds ([5 x i8], [5 x i8]* @.str.1, i64 0, i64 0), i32 %22, i32 %23)
  br label %81

25:                                               ; preds = %14
  %26 = load i32, i32* %2, align 4
  %27 = icmp slt i32 %26, 1000
  br i1 %27, label %28, label %40

28:                                               ; preds = %25
  %29 = load i32, i32* %2, align 4
  %30 = sdiv i32 %29, 100
  store i32 %30, i32* %3, align 4
  %31 = load i32, i32* %2, align 4
  %32 = srem i32 %31, 100
  %33 = sdiv i32 %32, 10
  store i32 %33, i32* %4, align 4
  %34 = load i32, i32* %2, align 4
  %35 = srem i32 %34, 10
  store i32 %35, i32* %5, align 4
  %36 = load i32, i32* %5, align 4
  %37 = load i32, i32* %4, align 4
  %38 = load i32, i32* %3, align 4
  %39 = call i32 (i8*, ...) @printf(i8* getelementptr inbounds ([7 x i8], [7 x i8]* @.str.2, i64 0, i64 0), i32 %36, i32 %37, i32 %38)
  br label %80

40:                                               ; preds = %25
  %41 = load i32, i32* %2, align 4
  %42 = icmp slt i32 %41, 10000
  br i1 %42, label %43, label %59

43:                                               ; preds = %40
  %44 = load i32, i32* %2, align 4
  %45 = sdiv i32 %44, 1000
  store i32 %45, i32* %3, align 4
  %46 = load i32, i32* %2, align 4
  %47 = srem i32 %46, 1000
  %48 = sdiv i32 %47, 100
  store i32 %48, i32* %4, align 4
  %49 = load i32, i32* %2, align 4
  %50 = srem i32 %49, 100
  %51 = sdiv i32 %50, 10
  store i32 %51, i32* %5, align 4
  %52 = load i32, i32* %2, align 4
  %53 = srem i32 %52, 10
  store i32 %53, i32* %6, align 4
  %54 = load i32, i32* %6, align 4
  %55 = load i32, i32* %5, align 4
  %56 = load i32, i32* %4, align 4
  %57 = load i32, i32* %3, align 4
  %58 = call i32 (i8*, ...) @printf(i8* getelementptr inbounds ([9 x i8], [9 x i8]* @.str.3, i64 0, i64 0), i32 %54, i32 %55, i32 %56, i32 %57)
  br label %79

59:                                               ; preds = %40
  %60 = load i32, i32* %2, align 4
  %61 = sdiv i32 %60, 10000
  store i32 %61, i32* %3, align 4
  %62 = load i32, i32* %2, align 4
  %63 = srem i32 %62, 10000
  %64 = sdiv i32 %63, 1000
  store i32 %64, i32* %4, align 4
  %65 = load i32, i32* %2, align 4
  %66 = srem i32 %65, 1000
  %67 = sdiv i32 %66, 100
  store i32 %67, i32* %5, align 4
  %68 = load i32, i32* %2, align 4
  %69 = srem i32 %68, 100
  %70 = sdiv i32 %69, 10
  store i32 %70, i32* %6, align 4
  %71 = load i32, i32* %2, align 4
  %72 = srem i32 %71, 10
  store i32 %72, i32* %7, align 4
  %73 = load i32, i32* %7, align 4
  %74 = load i32, i32* %6, align 4
  %75 = load i32, i32* %5, align 4
  %76 = load i32, i32* %4, align 4
  %77 = load i32, i32* %3, align 4
  %78 = call i32 (i8*, ...) @printf(i8* getelementptr inbounds ([11 x i8], [11 x i8]* @.str.4, i64 0, i64 0), i32 %73, i32 %74, i32 %75, i32 %76, i32 %77)
  br label %79

79:                                               ; preds = %59, %43
  br label %80

80:                                               ; preds = %79, %28
  br label %81

81:                                               ; preds = %80, %17
  br label %82

82:                                               ; preds = %81, %11
  %83 = load i32, i32* %1, align 4
  ret i32 %83
}

declare dso_local i32 @__isoc99_scanf(i8*, ...) #1

declare dso_local i32 @printf(i8*, ...) #1


!llvm.module.flags = !{!0}
!llvm.ident = !{!1}

!0 = !{i32 1, !"wchar_size", i32 4}
!1 = !{!"clang version 10.0.0-4ubuntu1 "}
